target datalayout = "e-m:e-p270:32:32-p271:32:32-p272:64:64-i64:64-i128:128-f80:128-n8:16:32:64-S128"
target triple = "x86_64-pc-linux-gnu"

%struct.CordRep = type { %struct.Generic, %union.ConcatOrFunc }
%struct.Generic = type { i8, i8, i8, i8, i64 }
%union.ConcatOrFunc = type { %struct.Concatenation }
%struct.Concatenation = type { ptr, ptr }

@CORD_oom_fn = global ptr null, align 8
@stderr = external global ptr, align 8
@.str = private unnamed_addr constant [4 x i8] c"%s\0A\00", align 1
@.str.1 = private unnamed_addr constant [14 x i8] c"Out of memory\00", align 1

; Function Attrs: nounwind uwtable
define hidden void @CORD__call_oom_fn() #0 {
  %1 = load ptr, ptr @CORD_oom_fn, align 8, !tbaa !3
  %2 = icmp ne ptr %1, null
  br i1 %2, label %3, label %5

3:                                                ; preds = %0
  %4 = load ptr, ptr @CORD_oom_fn, align 8, !tbaa !3
  call void %4()
  br label %5

5:                                                ; preds = %3, %0
  ret void
}

; Function Attrs: nounwind uwtable
define ptr @CORD_cat(ptr noundef %0, ptr noundef %1) #0 {
  %3 = alloca ptr, align 8
  %4 = alloca ptr, align 8
  %5 = alloca ptr, align 8
  %6 = alloca i64, align 8
  %7 = alloca i32, align 4
  %8 = alloca i64, align 8
  %9 = alloca i32, align 4
  %10 = alloca i32, align 4
  %11 = alloca ptr, align 8
  store ptr %0, ptr %4, align 8, !tbaa !7
  store ptr %1, ptr %5, align 8, !tbaa !7
  call void @llvm.lifetime.start.p0(i64 8, ptr %6) #9
  call void @llvm.lifetime.start.p0(i64 4, ptr %7) #9
  call void @llvm.lifetime.start.p0(i64 8, ptr %8) #9
  %12 = load ptr, ptr %4, align 8, !tbaa !7
  %13 = icmp eq ptr %12, null
  br i1 %13, label %14, label %16

14:                                               ; preds = %2
  %15 = load ptr, ptr %5, align 8, !tbaa !7
  store ptr %15, ptr %3, align 8
  store i32 1, ptr %9, align 4
  br label %122

16:                                               ; preds = %2
  %17 = load ptr, ptr %5, align 8, !tbaa !7
  %18 = icmp eq ptr %17, null
  br i1 %18, label %19, label %21

19:                                               ; preds = %16
  %20 = load ptr, ptr %4, align 8, !tbaa !7
  store ptr %20, ptr %3, align 8
  store i32 1, ptr %9, align 4
  br label %122

21:                                               ; preds = %16
  %22 = load ptr, ptr %5, align 8, !tbaa !7
  %23 = load i8, ptr %22, align 1, !tbaa !17
  %24 = sext i8 %23 to i32
  %25 = icmp ne i32 %24, 0
  br i1 %25, label %26, label %32

26:                                               ; preds = %21
  %27 = load ptr, ptr %4, align 8, !tbaa !7
  %28 = load ptr, ptr %5, align 8, !tbaa !7
  %29 = load ptr, ptr %5, align 8, !tbaa !7
  %30 = call i64 @strlen(ptr noundef %29) #10
  %31 = call ptr @CORD_cat_char_star(ptr noundef %27, ptr noundef %28, i64 noundef %30)
  store ptr %31, ptr %3, align 8
  store i32 1, ptr %9, align 4
  br label %122

32:                                               ; preds = %21
  %33 = load ptr, ptr %4, align 8, !tbaa !7
  %34 = load i8, ptr %33, align 1, !tbaa !17
  %35 = sext i8 %34 to i32
  %36 = icmp ne i32 %35, 0
  br i1 %36, label %37, label %46

37:                                               ; preds = %32
  %38 = load ptr, ptr %4, align 8, !tbaa !7
  %39 = call i64 @strlen(ptr noundef %38) #10
  store i64 %39, ptr %8, align 8, !tbaa !13
  %40 = load ptr, ptr %5, align 8, !tbaa !7
  %41 = getelementptr inbounds nuw %struct.CordRep, ptr %40, i32 0, i32 0
  %42 = getelementptr inbounds nuw %struct.Generic, ptr %41, i32 0, i32 2
  %43 = load i8, ptr %42, align 2, !tbaa !25
  %44 = sext i8 %43 to i32
  %45 = add nsw i32 %44, 1
  store i32 %45, ptr %7, align 4, !tbaa !11
  br label %69

46:                                               ; preds = %32
  call void @llvm.lifetime.start.p0(i64 4, ptr %10) #9
  %47 = load ptr, ptr %5, align 8, !tbaa !7
  %48 = getelementptr inbounds nuw %struct.CordRep, ptr %47, i32 0, i32 0
  %49 = getelementptr inbounds nuw %struct.Generic, ptr %48, i32 0, i32 2
  %50 = load i8, ptr %49, align 2, !tbaa !25
  %51 = sext i8 %50 to i32
  store i32 %51, ptr %10, align 4, !tbaa !11
  %52 = load ptr, ptr %4, align 8, !tbaa !7
  %53 = getelementptr inbounds nuw %struct.CordRep, ptr %52, i32 0, i32 0
  %54 = getelementptr inbounds nuw %struct.Generic, ptr %53, i32 0, i32 4
  %55 = load i64, ptr %54, align 8, !tbaa !24
  store i64 %55, ptr %8, align 8, !tbaa !13
  %56 = load ptr, ptr %4, align 8, !tbaa !7
  %57 = getelementptr inbounds nuw %struct.CordRep, ptr %56, i32 0, i32 0
  %58 = getelementptr inbounds nuw %struct.Generic, ptr %57, i32 0, i32 2
  %59 = load i8, ptr %58, align 2, !tbaa !25
  %60 = sext i8 %59 to i32
  %61 = add nsw i32 %60, 1
  store i32 %61, ptr %7, align 4, !tbaa !11
  %62 = load i32, ptr %10, align 4, !tbaa !11
  %63 = load i32, ptr %7, align 4, !tbaa !11
  %64 = icmp sge i32 %62, %63
  br i1 %64, label %65, label %68

65:                                               ; preds = %46
  %66 = load i32, ptr %10, align 4, !tbaa !11
  %67 = add nsw i32 %66, 1
  store i32 %67, ptr %7, align 4, !tbaa !11
  br label %68

68:                                               ; preds = %65, %46
  call void @llvm.lifetime.end.p0(i64 4, ptr %10) #9
  br label %69

69:                                               ; preds = %68, %37
  br label %70

70:                                               ; preds = %69
  %71 = load i64, ptr %8, align 8, !tbaa !13
  %72 = load ptr, ptr %5, align 8, !tbaa !7
  %73 = getelementptr inbounds nuw %struct.CordRep, ptr %72, i32 0, i32 0
  %74 = getelementptr inbounds nuw %struct.Generic, ptr %73, i32 0, i32 4
  %75 = load i64, ptr %74, align 8, !tbaa !24
  %76 = add i64 %71, %75
  store i64 %76, ptr %6, align 8, !tbaa !13
  call void @llvm.lifetime.start.p0(i64 8, ptr %11) #9
  %77 = call noalias ptr @GC_malloc(i64 noundef 32) #11
  store ptr %77, ptr %11, align 8, !tbaa !3
  %78 = load ptr, ptr %11, align 8, !tbaa !3
  %79 = icmp eq ptr null, %78
  br i1 %79, label %80, label %83

80:                                               ; preds = %70
  call void @CORD__call_oom_fn()
  %81 = load ptr, ptr @stderr, align 8, !tbaa !9
  %82 = call i32 (ptr, ptr, ...) @fprintf(ptr noundef %81, ptr noundef @.str, ptr noundef @.str.1) #9
  call void @abort() #12
  unreachable

83:                                               ; preds = %70
  %84 = load ptr, ptr %11, align 8, !tbaa !3
  %85 = getelementptr inbounds nuw %struct.CordRep, ptr %84, i32 0, i32 0
  %86 = getelementptr inbounds nuw %struct.Generic, ptr %85, i32 0, i32 1
  store i8 1, ptr %86, align 1, !tbaa !19
  %87 = load i32, ptr %7, align 4, !tbaa !11
  %88 = trunc i32 %87 to i8
  %89 = load ptr, ptr %11, align 8, !tbaa !3
  %90 = getelementptr inbounds nuw %struct.CordRep, ptr %89, i32 0, i32 0
  %91 = getelementptr inbounds nuw %struct.Generic, ptr %90, i32 0, i32 2
  store i8 %88, ptr %91, align 2, !tbaa !25
  %92 = load i64, ptr %8, align 8, !tbaa !13
  %93 = icmp ule i64 %92, 255
  br i1 %93, label %94, label %100

94:                                               ; preds = %83
  %95 = load i64, ptr %8, align 8, !tbaa !13
  %96 = trunc i64 %95 to i8
  %97 = load ptr, ptr %11, align 8, !tbaa !3
  %98 = getelementptr inbounds nuw %struct.CordRep, ptr %97, i32 0, i32 0
  %99 = getelementptr inbounds nuw %struct.Generic, ptr %98, i32 0, i32 3
  store i8 %96, ptr %99, align 1, !tbaa !35
  br label %100

100:                                              ; preds = %94, %83
  %101 = load i64, ptr %6, align 8, !tbaa !13
  %102 = load ptr, ptr %11, align 8, !tbaa !3
  %103 = getelementptr inbounds nuw %struct.CordRep, ptr %102, i32 0, i32 0
  %104 = getelementptr inbounds nuw %struct.Generic, ptr %103, i32 0, i32 4
  store i64 %101, ptr %104, align 8, !tbaa !24
  %105 = load ptr, ptr %4, align 8, !tbaa !7
  %106 = load ptr, ptr %11, align 8, !tbaa !3
  %107 = getelementptr inbounds nuw %struct.CordRep, ptr %106, i32 0, i32 1
  %108 = getelementptr inbounds nuw %struct.Concatenation, ptr %107, i32 0, i32 0
  store ptr %105, ptr %108, align 8, !tbaa !17
  %109 = load ptr, ptr %11, align 8, !tbaa !3
  %110 = getelementptr inbounds nuw %struct.CordRep, ptr %109, i32 0, i32 1
  %111 = getelementptr inbounds nuw %struct.Concatenation, ptr %110, i32 0, i32 1
  %112 = load ptr, ptr %5, align 8, !tbaa !7
  call void @GC_ptr_store_and_dirty(ptr noundef %111, ptr noundef %112)
  %113 = load ptr, ptr %4, align 8, !tbaa !7
  call void asm sideeffect " ", "X,~{memory},~{dirflag},~{fpsr},~{flags}"(ptr %113) #9, !srcloc !37
  %114 = load i32, ptr %7, align 4, !tbaa !11
  %115 = icmp sge i32 %114, 48
  br i1 %115, label %116, label %119

116:                                              ; preds = %100
  %117 = load ptr, ptr %11, align 8, !tbaa !3
  %118 = call ptr @CORD_balance(ptr noundef %117)
  store ptr %118, ptr %3, align 8
  store i32 1, ptr %9, align 4
  br label %121

119:                                              ; preds = %100
  %120 = load ptr, ptr %11, align 8, !tbaa !3
  store ptr %120, ptr %3, align 8
  store i32 1, ptr %9, align 4
  br label %121

121:                                              ; preds = %119, %116
  call void @llvm.lifetime.end.p0(i64 8, ptr %11) #9
  br label %122

122:                                              ; preds = %121, %26, %19, %14
  call void @llvm.lifetime.end.p0(i64 8, ptr %8) #9
  call void @llvm.lifetime.end.p0(i64 4, ptr %7) #9
  call void @llvm.lifetime.end.p0(i64 8, ptr %6) #9
  %123 = load ptr, ptr %3, align 8
  ret ptr %123
}