; Function Attrs: nounwind uwtable
define ptr @CORD_cat(ptr noundef %0, ptr noundef %1) local_unnamed_addr #2 {
  %3 = icmp eq ptr %0, null
  br i1 %3, label %49, label %4

4:                                                ; preds = %2
  %5 = icmp eq ptr %1, null
  br i1 %5, label %49, label %6

6:                                                ; preds = %4
  %7 = load i8, ptr %1, align 1, !tbaa !11
  %.not = icmp eq i8 %7, 0
  br i1 %.not, label %11, label %8

8:                                                ; preds = %6
  %9 = tail call i64 @strlen(ptr noundef nonnull dereferenceable(1) %1) #18
  %10 = tail call ptr @CORD_cat_char_star(ptr noundef nonnull %0, ptr noundef nonnull %1, i64 noundef %9)
  br label %49

11:                                               ; preds = %6
  %12 = load i8, ptr %0, align 1, !tbaa !11
  %.not44 = icmp eq i8 %12, 0
  br i1 %.not44, label %17, label %13

13:                                               ; preds = %11
  %14 = tail call i64 @strlen(ptr noundef nonnull dereferenceable(1) %0) #18
  %15 = getelementptr inbounds nuw i8, ptr %1, i64 2
  %16 = load i8, ptr %15, align 2, !tbaa !18
  br label %24

17:                                               ; preds = %11
  %18 = getelementptr inbounds nuw i8, ptr %1, i64 2
  %19 = load i8, ptr %18, align 2, !tbaa !18
  %20 = getelementptr inbounds nuw i8, ptr %0, i64 8
  %21 = load i64, ptr %20, align 8, !tbaa !17
  %22 = getelementptr inbounds nuw i8, ptr %0, i64 2
  %23 = load i8, ptr %22, align 2, !tbaa !18
  %spec.select = tail call i8 @llvm.smax.i8(i8 %23, i8 %19)
  br label %24

24:                                               ; preds = %13, %17
  %.038 = phi i64 [ %14, %13 ], [ %21, %17 ]
  %.137.in.in = phi i8 [ %16, %13 ], [ %spec.select, %17 ]
  %25 = getelementptr inbounds nuw i8, ptr %1, i64 8
  %26 = load i64, ptr %25, align 8, !tbaa !17
  %27 = add i64 %26, %.038
  %28 = tail call noalias dereferenceable_or_null(32) ptr @GC_malloc(i64 noundef 32) #19
  %29 = icmp eq ptr %28, null
  br i1 %29, label %30, label %35

30:                                               ; preds = %24
  %31 = load ptr, ptr @CORD_oom_fn, align 8, !tbaa !3
  %.not.i = icmp eq ptr %31, null
  br i1 %.not.i, label %CORD__call_oom_fn.exit, label %32

32:                                               ; preds = %30
  tail call void %31() #17
  br label %CORD__call_oom_fn.exit

CORD__call_oom_fn.exit:                           ; preds = %30, %32
  %33 = load ptr, ptr @stderr, align 8, !tbaa !7
  %34 = tail call i32 (ptr, ptr, ...) @fprintf(ptr noundef %33, ptr noundef nonnull @.str, ptr noundef nonnull @.str.1) #20
  tail call void @abort() #21
  unreachable

35:                                               ; preds = %24
  %.137 = add i8 %.137.in.in, 1
  %36 = getelementptr inbounds nuw i8, ptr %28, i64 1
  store i8 1, ptr %36, align 1, !tbaa !13
  %37 = getelementptr inbounds nuw i8, ptr %28, i64 2
  store i8 %.137, ptr %37, align 2, !tbaa !18
  %38 = icmp ult i64 %.038, 256
  br i1 %38, label %39, label %42

39:                                               ; preds = %35
  %40 = trunc nuw i64 %.038 to i8
  %41 = getelementptr inbounds nuw i8, ptr %28, i64 3
  store i8 %40, ptr %41, align 1, !tbaa !27
  br label %42

42:                                               ; preds = %39, %35
  %43 = getelementptr inbounds nuw i8, ptr %28, i64 8
  store i64 %27, ptr %43, align 8, !tbaa !17
  %44 = getelementptr inbounds nuw i8, ptr %28, i64 16
  store ptr %0, ptr %44, align 8, !tbaa !11
  %45 = getelementptr inbounds nuw i8, ptr %28, i64 24
  tail call void @GC_ptr_store_and_dirty(ptr noundef nonnull %45, ptr noundef nonnull %1) #17
  tail call void asm sideeffect " ", "X,~{memory},~{dirflag},~{fpsr},~{flags}"(ptr nonnull %0) #17, !srcloc !36
  %46 = icmp sgt i8 %.137.in.in, 46
  br i1 %46, label %47, label %49

47:                                               ; preds = %42
  %48 = tail call ptr @CORD_balance(ptr noundef nonnull %28)
  br label %49

49:                                               ; preds = %47, %42, %4, %2, %8
  %.0 = phi ptr [ %10, %8 ], [ %1, %2 ], [ %0, %4 ], [ %48, %47 ], [ %28, %42 ]
  ret ptr %.0
}